; Function Attrs: mustprogress nofree norecurse nosync nounwind willreturn memory(read, inaccessiblemem: none) uwtable
define hidden noundef zeroext i1 @_ZNK9XHandlers6equalsEPS_(ptr nocapture noundef nonnull readonly align 8 dereferenceable(24) %0, ptr noundef readonly %1) local_unnamed_addr #2 align 2 {
  %3 = icmp eq ptr %1, null
  br i1 %3, label %_ZNK8XHandler6equalsEPS_.exit.thread, label %4

4:                                                ; preds = %2
  %5 = load i32, ptr %0, align 8
  %6 = load i32, ptr %1, align 4
  %.not = icmp eq i32 %5, %6
  br i1 %.not, label %.preheader, label %_ZNK8XHandler6equalsEPS_.exit.thread

.preheader:                                       ; preds = %4
  %7 = icmp sgt i32 %5, 0
  br i1 %7, label %.lr.ph, label %_ZNK8XHandler6equalsEPS_.exit.thread

.lr.ph:                                           ; preds = %.preheader
  %8 = getelementptr inbounds i8, ptr %0, i64 8
  %9 = load ptr, ptr %8, align 8
  %10 = getelementptr inbounds i8, ptr %1, i64 8
  %11 = load ptr, ptr %10, align 8
  %wide.trip.count = zext nneg i32 %5 to i64
  br label %13

12:                                               ; preds = %_ZNK8XHandler6equalsEPS_.exit
  %indvars.iv.next = add nuw nsw i64 %indvars.iv, 1
  %exitcond.not = icmp eq i64 %indvars.iv.next, %wide.trip.count
  br i1 %exitcond.not, label %_ZNK8XHandler6equalsEPS_.exit.thread, label %13, !llvm.loop !11

13:                                               ; preds = %.lr.ph, %12
  %indvars.iv = phi i64 [ 0, %.lr.ph ], [ %indvars.iv.next, %12 ]
  %14 = getelementptr inbounds ptr, ptr %9, i64 %indvars.iv
  %15 = load ptr, ptr %14, align 8
  %16 = getelementptr inbounds ptr, ptr %11, i64 %indvars.iv
  %17 = load ptr, ptr %16, align 8
  %18 = getelementptr inbounds i8, ptr %15, i64 24
  %19 = load i32, ptr %18, align 8
  %20 = getelementptr inbounds i8, ptr %17, i64 24
  %21 = load i32, ptr %20, align 8
  %.not.i = icmp eq i32 %19, %21
  br i1 %.not.i, label %22, label %_ZNK8XHandler6equalsEPS_.exit.thread

22:                                               ; preds = %13
  %23 = getelementptr inbounds i8, ptr %15, i64 32
  %24 = load i32, ptr %23, align 8
  %25 = getelementptr inbounds i8, ptr %17, i64 32
  %26 = load i32, ptr %25, align 8
  %.not5.i = icmp eq i32 %24, %26
  br i1 %.not5.i, label %_ZNK8XHandler6equalsEPS_.exit, label %_ZNK8XHandler6equalsEPS_.exit.thread

_ZNK8XHandler6equalsEPS_.exit:                    ; preds = %22
  %27 = load ptr, ptr %15, align 8
  %28 = load ptr, ptr %17, align 8
  %.not6.i = icmp eq ptr %27, %28
  br i1 %.not6.i, label %12, label %_ZNK8XHandler6equalsEPS_.exit.thread

_ZNK8XHandler6equalsEPS_.exit.thread:             ; preds = %_ZNK8XHandler6equalsEPS_.exit, %12, %13, %22, %.preheader, %4, %2
  %.08 = phi i1 [ false, %2 ], [ false, %4 ], [ true, %.preheader ], [ false, %_ZNK8XHandler6equalsEPS_.exit ], [ true, %12 ], [ false, %13 ], [ false, %22 ]
  ret i1 %.08
}